target datalayout = "e-m:e-p270:32:32-p271:32:32-p272:64:64-i64:64-i128:128-f80:128-n8:16:32:64-S128"
target triple = "x86_64-pc-linux-gnu"

; Function Attrs: inlinehint nounwind uwtable
define internal i32 @w_c(ptr noundef %0, ptr noundef %1, ptr noundef %2, i64 noundef %3, i32 noundef %4, i32 noundef %5, i32 noundef %6) #4 {
  %8 = alloca ptr, align 8
  %9 = alloca ptr, align 8
  %10 = alloca ptr, align 8
  %11 = alloca i64, align 8
  %12 = alloca i32, align 4
  %13 = alloca i32, align 4
  %14 = alloca i32, align 4
  %15 = alloca i32, align 4
  %16 = alloca i32, align 4
  %17 = alloca i32, align 4
  %18 = alloca i32, align 4
  %19 = alloca [1024 x i32], align 16
  %20 = alloca [32 x i32], align 16
  %21 = alloca i32, align 4
  %22 = alloca i32, align 4
  %23 = alloca i32, align 4
  %24 = alloca i32, align 4
  %25 = alloca i32, align 4
  %26 = alloca i32, align 4
  %27 = alloca i32, align 4
  store ptr %0, ptr %8, align 8, !tbaa !56
  store ptr %1, ptr %9, align 8, !tbaa !58
  store ptr %2, ptr %10, align 8, !tbaa !58
  store i64 %3, ptr %11, align 8, !tbaa !60
  store i32 %4, ptr %12, align 4, !tbaa !9
  store i32 %5, ptr %13, align 4, !tbaa !9
  store i32 %6, ptr %14, align 4, !tbaa !9
  call void @llvm.lifetime.start.p0(i64 4, ptr %15) #8
  call void @llvm.lifetime.start.p0(i64 4, ptr %16) #8
  call void @llvm.lifetime.start.p0(i64 4, ptr %17) #8
  call void @llvm.lifetime.start.p0(i64 4, ptr %18) #8
  %28 = load i32, ptr %12, align 4, !tbaa !9
  %29 = icmp eq i32 %28, 8
  %30 = select i1 %29, i32 3, i32 4
  store i32 %30, ptr %18, align 4, !tbaa !9
  call void @llvm.lifetime.start.p0(i64 4096, ptr %19) #8
  call void @llvm.lifetime.start.p0(i64 128, ptr %20) #8
  call void @llvm.lifetime.start.p0(i64 4, ptr %21) #8
  call void @llvm.lifetime.start.p0(i64 4, ptr %22) #8
  store i32 0, ptr %16, align 4, !tbaa !9
  br label %31

31:                                               ; preds = %143, %7
  %32 = load i32, ptr %16, align 4, !tbaa !9
  %33 = load i32, ptr %13, align 4, !tbaa !9
  %34 = icmp slt i32 %32, %33
  br i1 %34, label %35, label %146

35:                                               ; preds = %31
  store i32 0, ptr %17, align 4, !tbaa !9
  br label %36

36:                                               ; preds = %133, %35
  %37 = load i32, ptr %17, align 4, !tbaa !9
  %38 = load i32, ptr %12, align 4, !tbaa !9
  %39 = icmp slt i32 %37, %38
  br i1 %39, label %40, label %136

40:                                               ; preds = %36
  %41 = load ptr, ptr %9, align 8, !tbaa !58
  %42 = load i32, ptr %17, align 4, !tbaa !9
  %43 = add nsw i32 %42, 0
  %44 = sext i32 %43 to i64
  %45 = getelementptr inbounds i8, ptr %41, i64 %44
  %46 = load i8, ptr %45, align 1, !tbaa !62
  %47 = zext i8 %46 to i32
  %48 = load ptr, ptr %10, align 8, !tbaa !58
  %49 = load i32, ptr %17, align 4, !tbaa !9
  %50 = add nsw i32 %49, 0
  %51 = sext i32 %50 to i64
  %52 = getelementptr inbounds i8, ptr %48, i64 %51
  %53 = load i8, ptr %52, align 1, !tbaa !62
  %54 = zext i8 %53 to i32
  %55 = sub nsw i32 %47, %54
  %56 = mul nsw i32 %55, 16
  %57 = load i32, ptr %16, align 4, !tbaa !9
  %58 = mul nsw i32 32, %57
  %59 = load i32, ptr %17, align 4, !tbaa !9
  %60 = add nsw i32 %58, %59
  %61 = add nsw i32 %60, 0
  %62 = sext i32 %61 to i64
  %63 = getelementptr inbounds [1024 x i32], ptr %19, i64 0, i64 %62
  store i32 %56, ptr %63, align 4, !tbaa !9
  %64 = load ptr, ptr %9, align 8, !tbaa !58
  %65 = load i32, ptr %17, align 4, !tbaa !9
  %66 = add nsw i32 %65, 1
  %67 = sext i32 %66 to i64
  %68 = getelementptr inbounds i8, ptr %64, i64 %67
  %69 = load i8, ptr %68, align 1, !tbaa !62
  %70 = zext i8 %69 to i32
  %71 = load ptr, ptr %10, align 8, !tbaa !58
  %72 = load i32, ptr %17, align 4, !tbaa !9
  %73 = add nsw i32 %72, 1
  %74 = sext i32 %73 to i64
  %75 = getelementptr inbounds i8, ptr %71, i64 %74
  %76 = load i8, ptr %75, align 1, !tbaa !62
  %77 = zext i8 %76 to i32
  %78 = sub nsw i32 %70, %77
  %79 = mul nsw i32 %78, 16
  %80 = load i32, ptr %16, align 4, !tbaa !9
  %81 = mul nsw i32 32, %80
  %82 = load i32, ptr %17, align 4, !tbaa !9
  %83 = add nsw i32 %81, %82
  %84 = add nsw i32 %83, 1
  %85 = sext i32 %84 to i64
  %86 = getelementptr inbounds [1024 x i32], ptr %19, i64 0, i64 %85
  store i32 %79, ptr %86, align 4, !tbaa !9
  %87 = load ptr, ptr %9, align 8, !tbaa !58
  %88 = load i32, ptr %17, align 4, !tbaa !9
  %89 = add nsw i32 %88, 2
  %90 = sext i32 %89 to i64
  %91 = getelementptr inbounds i8, ptr %87, i64 %90
  %92 = load i8, ptr %91, align 1, !tbaa !62
  %93 = zext i8 %92 to i32
  %94 = load ptr, ptr %10, align 8, !tbaa !58
  %95 = load i32, ptr %17, align 4, !tbaa !9
  %96 = add nsw i32 %95, 2
  %97 = sext i32 %96 to i64
  %98 = getelementptr inbounds i8, ptr %94, i64 %97
  %99 = load i8, ptr %98, align 1, !tbaa !62
  %100 = zext i8 %99 to i32
  %101 = sub nsw i32 %93, %100
  %102 = mul nsw i32 %101, 16
  %103 = load i32, ptr %16, align 4, !tbaa !9
  %104 = mul nsw i32 32, %103
  %105 = load i32, ptr %17, align 4, !tbaa !9
  %106 = add nsw i32 %104, %105
  %107 = add nsw i32 %106, 2
  %108 = sext i32 %107 to i64
  %109 = getelementptr inbounds [1024 x i32], ptr %19, i64 0, i64 %108
  store i32 %102, ptr %109, align 4, !tbaa !9
  %110 = load ptr, ptr %9, align 8, !tbaa !58
  %111 = load i32, ptr %17, align 4, !tbaa !9
  %112 = add nsw i32 %111, 3
  %113 = sext i32 %112 to i64
  %114 = getelementptr inbounds i8, ptr %110, i64 %113
  %115 = load i8, ptr %114, align 1, !tbaa !62
  %116 = zext i8 %115 to i32
  %117 = load ptr, ptr %10, align 8, !tbaa !58
  %118 = load i32, ptr %17, align 4, !tbaa !9
  %119 = add nsw i32 %118, 3
  %120 = sext i32 %119 to i64
  %121 = getelementptr inbounds i8, ptr %117, i64 %120
  %122 = load i8, ptr %121, align 1, !tbaa !62
  %123 = zext i8 %122 to i32
  %124 = sub nsw i32 %116, %123
  %125 = mul nsw i32 %124, 16
  %126 = load i32, ptr %16, align 4, !tbaa !9
  %127 = mul nsw i32 32, %126
  %128 = load i32, ptr %17, align 4, !tbaa !9
  %129 = add nsw i32 %127, %128
  %130 = add nsw i32 %129, 3
  %131 = sext i32 %130 to i64
  %132 = getelementptr inbounds [1024 x i32], ptr %19, i64 0, i64 %131
  store i32 %125, ptr %132, align 4, !tbaa !9
  br label %133

133:                                              ; preds = %40
  %134 = load i32, ptr %17, align 4, !tbaa !9
  %135 = add nsw i32 %134, 4
  store i32 %135, ptr %17, align 4, !tbaa !9
  br label %36, !llvm.loop !63

136:                                              ; preds = %36
  %137 = load i64, ptr %11, align 8, !tbaa !60
  %138 = load ptr, ptr %9, align 8, !tbaa !58
  %139 = getelementptr inbounds i8, ptr %138, i64 %137
  store ptr %139, ptr %9, align 8, !tbaa !58
  %140 = load i64, ptr %11, align 8, !tbaa !60
  %141 = load ptr, ptr %10, align 8, !tbaa !58
  %142 = getelementptr inbounds i8, ptr %141, i64 %140
  store ptr %142, ptr %10, align 8, !tbaa !58
  br label %143

143:                                              ; preds = %136
  %144 = load i32, ptr %16, align 4, !tbaa !9
  %145 = add nsw i32 %144, 1
  store i32 %145, ptr %16, align 4, !tbaa !9
  br label %31, !llvm.loop !64

146:                                              ; preds = %31
  %147 = getelementptr inbounds [1024 x i32], ptr %19, i64 0, i64 0
  %148 = getelementptr inbounds [32 x i32], ptr %20, i64 0, i64 0
  %149 = load i32, ptr %12, align 4, !tbaa !9
  %150 = load i32, ptr %13, align 4, !tbaa !9
  %151 = load i32, ptr %14, align 4, !tbaa !9
  %152 = load i32, ptr %18, align 4, !tbaa !9
  call void @ff_spatial_dwt(ptr noundef %147, ptr noundef %148, i32 noundef %149, i32 noundef %150, i32 noundef 32, i32 noundef %151, i32 noundef %152)
  store i32 0, ptr %15, align 4, !tbaa !9
  store i32 0, ptr %21, align 4, !tbaa !9
  br label %153

153:                                              ; preds = %251, %146
  %154 = load i32, ptr %21, align 4, !tbaa !9
  %155 = load i32, ptr %18, align 4, !tbaa !9
  %156 = icmp slt i32 %154, %155
  br i1 %156, label %157, label %254

157:                                              ; preds = %153
  %158 = load i32, ptr %21, align 4, !tbaa !9
  %159 = icmp ne i32 %158, 0
  %160 = select i1 %159, i32 1, i32 0
  store i32 %160, ptr %22, align 4, !tbaa !9
  br label %161

161:                                              ; preds = %247, %157
  %162 = load i32, ptr %22, align 4, !tbaa !9
  %163 = icmp slt i32 %162, 4
  br i1 %163, label %164, label %250

164:                                              ; preds = %161
  call void @llvm.lifetime.start.p0(i64 4, ptr %23) #8
  %165 = load i32, ptr %12, align 4, !tbaa !9
  %166 = load i32, ptr %18, align 4, !tbaa !9
  %167 = load i32, ptr %21, align 4, !tbaa !9
  %168 = sub nsw i32 %166, %167
  %169 = ashr i32 %165, %168
  store i32 %169, ptr %23, align 4, !tbaa !9
  call void @llvm.lifetime.start.p0(i64 4, ptr %24) #8
  %170 = load i32, ptr %22, align 4, !tbaa !9
  %171 = and i32 %170, 1
  %172 = icmp ne i32 %171, 0
  br i1 %172, label %173, label %175

173:                                              ; preds = %164
  %174 = load i32, ptr %23, align 4, !tbaa !9
  br label %176

175:                                              ; preds = %164
  br label %176

176:                                              ; preds = %175, %173
  %177 = phi i32 [ %174, %173 ], [ 0, %175 ]
  store i32 %177, ptr %24, align 4, !tbaa !9
  call void @llvm.lifetime.start.p0(i64 4, ptr %25) #8
  %178 = load i32, ptr %18, align 4, !tbaa !9
  %179 = load i32, ptr %21, align 4, !tbaa !9
  %180 = sub nsw i32 %178, %179
  %181 = shl i32 32, %180
  store i32 %181, ptr %25, align 4, !tbaa !9
  call void @llvm.lifetime.start.p0(i64 4, ptr %26) #8
  %182 = load i32, ptr %22, align 4, !tbaa !9
  %183 = and i32 %182, 2
  %184 = icmp ne i32 %183, 0
  br i1 %184, label %185, label %188

185:                                              ; preds = %176
  %186 = load i32, ptr %25, align 4, !tbaa !9
  %187 = ashr i32 %186, 1
  br label %189

188:                                              ; preds = %176
  br label %189

189:                                              ; preds = %188, %185
  %190 = phi i32 [ %187, %185 ], [ 0, %188 ]
  store i32 %190, ptr %26, align 4, !tbaa !9
  store i32 0, ptr %16, align 4, !tbaa !9
  br label %191

191:                                              ; preds = %243, %189
  %192 = load i32, ptr %16, align 4, !tbaa !9
  %193 = load i32, ptr %23, align 4, !tbaa !9
  %194 = icmp slt i32 %192, %193
  br i1 %194, label %195, label %246

195:                                              ; preds = %191
  store i32 0, ptr %17, align 4, !tbaa !9
  br label %196

196:                                              ; preds = %239, %195
  %197 = load i32, ptr %17, align 4, !tbaa !9
  %198 = load i32, ptr %23, align 4, !tbaa !9
  %199 = icmp slt i32 %197, %198
  br i1 %199, label %200, label %242

200:                                              ; preds = %196
  call void @llvm.lifetime.start.p0(i64 4, ptr %27) #8
  %201 = load i32, ptr %24, align 4, !tbaa !9
  %202 = load i32, ptr %26, align 4, !tbaa !9
  %203 = add nsw i32 %201, %202
  %204 = load i32, ptr %16, align 4, !tbaa !9
  %205 = load i32, ptr %25, align 4, !tbaa !9
  %206 = mul nsw i32 %204, %205
  %207 = add nsw i32 %203, %206
  %208 = load i32, ptr %17, align 4, !tbaa !9
  %209 = add nsw i32 %207, %208
  %210 = sext i32 %209 to i64
  %211 = getelementptr inbounds [1024 x i32], ptr %19, i64 0, i64 %210
  %212 = load i32, ptr %211, align 4, !tbaa !9
  %213 = load i32, ptr %14, align 4, !tbaa !9
  %214 = sext i32 %213 to i64
  %215 = getelementptr inbounds [2 x [2 x [4 x [4 x i32]]]], ptr @w_c.scale, i64 0, i64 %214
  %216 = load i32, ptr %18, align 4, !tbaa !9
  %217 = sub nsw i32 %216, 3
  %218 = sext i32 %217 to i64
  %219 = getelementptr inbounds [2 x [4 x [4 x i32]]], ptr %215, i64 0, i64 %218
  %220 = load i32, ptr %21, align 4, !tbaa !9
  %221 = sext i32 %220 to i64
  %222 = getelementptr inbounds [4 x [4 x i32]], ptr %219, i64 0, i64 %221
  %223 = load i32, ptr %22, align 4, !tbaa !9
  %224 = sext i32 %223 to i64
  %225 = getelementptr inbounds [4 x i32], ptr %222, i64 0, i64 %224
  %226 = load i32, ptr %225, align 4, !tbaa !9
  %227 = mul nsw i32 %212, %226
  store i32 %227, ptr %27, align 4, !tbaa !9
  %228 = load i32, ptr %27, align 4, !tbaa !9
  %229 = icmp sge i32 %228, 0
  br i1 %229, label %230, label %232

230:                                              ; preds = %200
  %231 = load i32, ptr %27, align 4, !tbaa !9
  br label %235

232:                                              ; preds = %200
  %233 = load i32, ptr %27, align 4, !tbaa !9
  %234 = sub nsw i32 0, %233
  br label %235

235:                                              ; preds = %232, %230
  %236 = phi i32 [ %231, %230 ], [ %234, %232 ]
  %237 = load i32, ptr %15, align 4, !tbaa !9
  %238 = add nsw i32 %237, %236
  store i32 %238, ptr %15, align 4, !tbaa !9
  call void @llvm.lifetime.end.p0(i64 4, ptr %27) #8
  br label %239

239:                                              ; preds = %235
  %240 = load i32, ptr %17, align 4, !tbaa !9
  %241 = add nsw i32 %240, 1
  store i32 %241, ptr %17, align 4, !tbaa !9
  br label %196, !llvm.loop !65

242:                                              ; preds = %196
  br label %243

243:                                              ; preds = %242
  %244 = load i32, ptr %16, align 4, !tbaa !9
  %245 = add nsw i32 %244, 1
  store i32 %245, ptr %16, align 4, !tbaa !9
  br label %191, !llvm.loop !66

246:                                              ; preds = %191
  call void @llvm.lifetime.end.p0(i64 4, ptr %26) #8
  call void @llvm.lifetime.end.p0(i64 4, ptr %25) #8
  call void @llvm.lifetime.end.p0(i64 4, ptr %24) #8
  call void @llvm.lifetime.end.p0(i64 4, ptr %23) #8
  br label %247

247:                                              ; preds = %246
  %248 = load i32, ptr %22, align 4, !tbaa !9
  %249 = add nsw i32 %248, 1
  store i32 %249, ptr %22, align 4, !tbaa !9
  br label %161, !llvm.loop !67

250:                                              ; preds = %161
  br label %251

251:                                              ; preds = %250
  %252 = load i32, ptr %21, align 4, !tbaa !9
  %253 = add nsw i32 %252, 1
  store i32 %253, ptr %21, align 4, !tbaa !9
  br label %153, !llvm.loop !68

254:                                              ; preds = %153
  %255 = load i32, ptr %15, align 4, !tbaa !9
  %256 = ashr i32 %255, 9
  call void @llvm.lifetime.end.p0(i64 4, ptr %22) #8
  call void @llvm.lifetime.end.p0(i64 4, ptr %21) #8
  call void @llvm.lifetime.end.p0(i64 128, ptr %20) #8
  call void @llvm.lifetime.end.p0(i64 4096, ptr %19) #8
  call void @llvm.lifetime.end.p0(i64 4, ptr %18) #8
  call void @llvm.lifetime.end.p0(i64 4, ptr %17) #8
  call void @llvm.lifetime.end.p0(i64 4, ptr %16) #8
  call void @llvm.lifetime.end.p0(i64 4, ptr %15) #8
  ret i32 %256
}