; Function Attrs: inlinehint nofree norecurse nosync nounwind memory(read, inaccessiblemem: none) uwtable
define internal fastcc range(i32 0, 4194304) i32 @w_c(ptr noundef readonly captures(none) %0, ptr noundef readonly captures(none) %1, i64 noundef %2, i32 noundef range(i32 8, 33) %3, i32 noundef %4, i32 noundef range(i32 0, 2) %5) unnamed_addr #8 {
  %7 = alloca [1024 x i32], align 16
  %8 = alloca [32 x i32], align 16
  %9 = icmp eq i32 %3, 8
  %10 = select i1 %9, i32 3, i32 4
  call void @llvm.lifetime.start.p0(i64 4096, ptr nonnull %7) #12
  call void @llvm.lifetime.start.p0(i64 128, ptr nonnull %8) #12
  %11 = icmp sgt i32 %4, 0
  br i1 %11, label %.preheader1.preheader, label %._crit_edge

.preheader1.preheader:                            ; preds = %6
  %12 = zext nneg i32 %3 to i64
  %wide.trip.count = zext nneg i32 %4 to i64
  br label %.preheader1

.preheader1:                                      ; preds = %.preheader1.preheader, %59
  %indvars.iv20 = phi i64 [ 0, %.preheader1.preheader ], [ %indvars.iv.next21, %59 ]
  %.05 = phi ptr [ %0, %.preheader1.preheader ], [ %60, %59 ]
  %.0734 = phi ptr [ %1, %.preheader1.preheader ], [ %61, %59 ]
  %13 = shl nsw i64 %indvars.iv20, 5
  br label %14

14:                                               ; preds = %.preheader1, %14
  %indvars.iv = phi i64 [ 0, %.preheader1 ], [ %indvars.iv.next, %14 ]
  %15 = getelementptr inbounds nuw i8, ptr %.05, i64 %indvars.iv
  %16 = load i8, ptr %15, align 1, !tbaa !67
  %17 = zext i8 %16 to i32
  %18 = getelementptr inbounds nuw i8, ptr %.0734, i64 %indvars.iv
  %19 = load i8, ptr %18, align 1, !tbaa !67
  %20 = zext i8 %19 to i32
  %21 = sub nsw i32 %17, %20
  %22 = shl nsw i32 %21, 4
  %23 = add nuw nsw i64 %indvars.iv, %13
  %24 = getelementptr inbounds nuw [1024 x i32], ptr %7, i64 0, i64 %23
  store i32 %22, ptr %24, align 16, !tbaa !26
  %25 = or disjoint i64 %indvars.iv, 1
  %26 = getelementptr inbounds nuw i8, ptr %.05, i64 %25
  %27 = load i8, ptr %26, align 1, !tbaa !67
  %28 = zext i8 %27 to i32
  %29 = getelementptr inbounds nuw i8, ptr %.0734, i64 %25
  %30 = load i8, ptr %29, align 1, !tbaa !67
  %31 = zext i8 %30 to i32
  %32 = sub nsw i32 %28, %31
  %33 = shl nsw i32 %32, 4
  %34 = or disjoint i64 %23, 1
  %35 = getelementptr inbounds nuw [1024 x i32], ptr %7, i64 0, i64 %34
  store i32 %33, ptr %35, align 4, !tbaa !26
  %36 = or disjoint i64 %indvars.iv, 2
  %37 = getelementptr inbounds nuw i8, ptr %.05, i64 %36
  %38 = load i8, ptr %37, align 1, !tbaa !67
  %39 = zext i8 %38 to i32
  %40 = getelementptr inbounds nuw i8, ptr %.0734, i64 %36
  %41 = load i8, ptr %40, align 1, !tbaa !67
  %42 = zext i8 %41 to i32
  %43 = sub nsw i32 %39, %42
  %44 = shl nsw i32 %43, 4
  %45 = or disjoint i64 %23, 2
  %46 = getelementptr inbounds nuw [1024 x i32], ptr %7, i64 0, i64 %45
  store i32 %44, ptr %46, align 8, !tbaa !26
  %47 = or disjoint i64 %indvars.iv, 3
  %48 = getelementptr inbounds nuw i8, ptr %.05, i64 %47
  %49 = load i8, ptr %48, align 1, !tbaa !67
  %50 = zext i8 %49 to i32
  %51 = getelementptr inbounds nuw i8, ptr %.0734, i64 %47
  %52 = load i8, ptr %51, align 1, !tbaa !67
  %53 = zext i8 %52 to i32
  %54 = sub nsw i32 %50, %53
  %55 = shl nsw i32 %54, 4
  %56 = or disjoint i64 %23, 3
  %57 = getelementptr inbounds nuw [1024 x i32], ptr %7, i64 0, i64 %56
  store i32 %55, ptr %57, align 4, !tbaa !26
  %indvars.iv.next = add nuw nsw i64 %indvars.iv, 4
  %58 = icmp samesign ult i64 %indvars.iv.next, %12
  br i1 %58, label %14, label %59, !llvm.loop !68

59:                                               ; preds = %14
  %60 = getelementptr inbounds i8, ptr %.05, i64 %2
  %61 = getelementptr inbounds i8, ptr %.0734, i64 %2
  %indvars.iv.next21 = add nuw nsw i64 %indvars.iv20, 1
  %exitcond.not = icmp eq i64 %indvars.iv.next21, %wide.trip.count
  br i1 %exitcond.not, label %._crit_edge, label %.preheader1, !llvm.loop !69

._crit_edge:                                      ; preds = %59, %6
  call void @ff_spatial_dwt(ptr noundef nonnull %7, ptr noundef nonnull %8, i32 noundef %3, i32 noundef %4, i32 noundef 32, i32 noundef %5, i32 noundef %10)
  %62 = zext nneg i32 %5 to i64
  %63 = add nsw i32 %10, -3
  %64 = zext nneg i32 %63 to i64
  %65 = zext nneg i32 %10 to i64
  br label %66

66:                                               ; preds = %._crit_edge, %.split14.us
  %indvars.iv37 = phi i64 [ 0, %._crit_edge ], [ %indvars.iv.next38, %.split14.us ]
  %.07416 = phi i32 [ 0, %._crit_edge ], [ %.us-phi, %.split14.us ]
  %67 = trunc i64 %indvars.iv37 to i32
  %68 = sub i32 %10, %67
  %69 = lshr i32 %3, %68
  %70 = shl i32 32, %68
  %71 = ashr exact i32 %70, 1
  %.not17 = icmp eq i32 %69, 0
  br i1 %.not17, label %.split14.us, label %.preheader.lr.ph.us.preheader

.preheader.lr.ph.us.preheader:                    ; preds = %66
  %.not = icmp ne i64 %indvars.iv37, 0
  %72 = sext i32 %70 to i64
  %73 = zext i1 %.not to i64
  %wide.trip.count31 = zext nneg i32 %69 to i64
  br label %.preheader.lr.ph.us

.preheader.lr.ph.us:                              ; preds = %.preheader.lr.ph.us.preheader, %._crit_edge10.us
  %indvars.iv33 = phi i64 [ %73, %.preheader.lr.ph.us.preheader ], [ %indvars.iv.next34, %._crit_edge10.us ]
  %.112.us = phi i32 [ %.07416, %.preheader.lr.ph.us.preheader ], [ %88, %._crit_edge10.us ]
  %74 = and i64 %indvars.iv33, 1
  %.not84.us = icmp eq i64 %74, 0
  %75 = select i1 %.not84.us, i32 0, i32 %69
  %.not85.us = icmp samesign ult i64 %indvars.iv33, 2
  %76 = select i1 %.not85.us, i32 0, i32 %71
  %77 = add nsw i32 %75, %76
  %78 = getelementptr inbounds nuw [2 x [2 x [4 x [4 x i32]]]], ptr @w_c.scale, i64 0, i64 %62, i64 %64, i64 %indvars.iv37, i64 %indvars.iv33
  %79 = load i32, ptr %78, align 4, !tbaa !26
  %80 = sext i32 %77 to i64
  br label %.preheader.us

81:                                               ; preds = %82
  %indvars.iv.next29 = add nuw nsw i64 %indvars.iv28, 1
  %exitcond32.not = icmp eq i64 %indvars.iv.next29, %wide.trip.count31
  br i1 %exitcond32.not, label %._crit_edge10.us, label %.preheader.us, !llvm.loop !70

82:                                               ; preds = %.preheader.us, %82
  %indvars.iv23 = phi i64 [ 0, %.preheader.us ], [ %indvars.iv.next24, %82 ]
  %.37.us = phi i32 [ %.29.us, %.preheader.us ], [ %88, %82 ]
  %83 = add nsw i64 %90, %indvars.iv23
  %84 = getelementptr inbounds [1024 x i32], ptr %7, i64 0, i64 %83
  %85 = load i32, ptr %84, align 4, !tbaa !26
  %86 = mul nsw i32 %79, %85
  %87 = call i32 @llvm.abs.i32(i32 %86, i1 true)
  %88 = add nuw nsw i32 %87, %.37.us
  %indvars.iv.next24 = add nuw nsw i64 %indvars.iv23, 1
  %exitcond27.not = icmp eq i64 %indvars.iv.next24, %wide.trip.count31
  br i1 %exitcond27.not, label %81, label %82, !llvm.loop !71

.preheader.us:                                    ; preds = %.preheader.lr.ph.us, %81
  %indvars.iv28 = phi i64 [ 0, %.preheader.lr.ph.us ], [ %indvars.iv.next29, %81 ]
  %.29.us = phi i32 [ %.112.us, %.preheader.lr.ph.us ], [ %88, %81 ]
  %89 = mul nsw i64 %indvars.iv28, %72
  %90 = add nsw i64 %89, %80
  br label %82

._crit_edge10.us:                                 ; preds = %81
  %indvars.iv.next34 = add nuw nsw i64 %indvars.iv33, 1
  %exitcond36.not = icmp eq i64 %indvars.iv.next34, 4
  br i1 %exitcond36.not, label %.split14.us, label %.preheader.lr.ph.us, !llvm.loop !72

.split14.us:                                      ; preds = %._crit_edge10.us, %66
  %.us-phi = phi i32 [ %.07416, %66 ], [ %88, %._crit_edge10.us ]
  %indvars.iv.next38 = add nuw nsw i64 %indvars.iv37, 1
  %exitcond41.not = icmp eq i64 %indvars.iv.next38, %65
  br i1 %exitcond41.not, label %91, label %66, !llvm.loop !73

91:                                               ; preds = %.split14.us
  %92 = lshr i32 %.us-phi, 9
  call void @llvm.lifetime.end.p0(i64 128, ptr nonnull %8) #12
  call void @llvm.lifetime.end.p0(i64 4096, ptr nonnull %7) #12
  ret i32 %92
}